; Function Attrs: mustprogress nofree norecurse nosync nounwind willreturn memory(write, argmem: readwrite, inaccessiblemem: none) uwtable
define internal noundef nonnull ptr @_ZN6evmone8advanced12_GLOBAL__N_113op_push_smallEPKNS0_11InstructionERNS0_22AdvancedExecutionStateE(ptr noundef readonly captures(ret: address, provenance) %0, ptr noundef nonnull align 8 captures(none) dereferenceable(564) %1) #9 {
  %3 = getelementptr inbounds nuw i8, ptr %1, i64 552
  %4 = getelementptr inbounds nuw i8, ptr %0, i64 8
  %5 = load i64, ptr %4, align 8, !tbaa !77
  %6 = load ptr, ptr %3, align 8, !tbaa !67
  %7 = getelementptr inbounds nuw i8, ptr %6, i64 32
  store ptr %7, ptr %3, align 8, !tbaa !67
  store i64 %5, ptr %6, align 8
  %.sroa.4.0..sroa_idx = getelementptr inbounds nuw i8, ptr %6, i64 8
  tail call void @llvm.memset.p0.i64(ptr noundef nonnull align 8 dereferenceable(24) %.sroa.4.0..sroa_idx, i8 0, i64 24, i1 false)
  %8 = getelementptr inbounds nuw i8, ptr %0, i64 16
  ret ptr %8
}